target datalayout = "e-m:e-p270:32:32-p271:32:32-p272:64:64-i64:64-i128:128-f80:128-n8:16:32:64-S128"
target triple = "x86_64-unknown-linux-gnu"

%struct.train_state = type { ptr, i64, i64, i64, i64, i64, %"class.std::__cxx11::basic_string", %"class.std::__cxx11::basic_string", i64, i64 }
%"class.std::__cxx11::basic_string" = type { %"struct.std::__cxx11::basic_string<char>::_Alloc_hider", i64, %union.anon }
%"struct.std::__cxx11::basic_string<char>::_Alloc_hider" = type { ptr }
%union.anon = type { i64, [8 x i8] }

; Function Attrs: mustprogress nounwind uwtable
define linkonce_odr void @_ZN11train_stateD2Ev(ptr noundef nonnull align 8 dereferenceable(128) %this) unnamed_addr #6 comdat align 2 {
entry:
  %this.addr = alloca ptr, align 8
  store ptr %this, ptr %this.addr, align 8
  %this1 = load ptr, ptr %this.addr, align 8
  %shuffle_rng_state_next = getelementptr inbounds %struct.train_state, ptr %this1, i32 0, i32 7
  call void @_ZNSt7__cxx1112basic_stringIcSt11char_traitsIcESaIcEED1Ev(ptr noundef nonnull align 8 dereferenceable(32) %shuffle_rng_state_next) #3
  %shuffle_rng_state_current = getelementptr inbounds %struct.train_state, ptr %this1, i32 0, i32 6
  call void @_ZNSt7__cxx1112basic_stringIcSt11char_traitsIcESaIcEED1Ev(ptr noundef nonnull align 8 dereferenceable(32) %shuffle_rng_state_current) #3
  ret void
}

; Function Attrs: mustprogress nounwind uwtable
define void @_Z16free_train_stateP11train_state(ptr noundef %state) #6 {
entry:
  %state.addr = alloca ptr, align 8
  store ptr %state, ptr %state.addr, align 8
  %0 = load ptr, ptr %state.addr, align 8
  %opt = getelementptr inbounds %struct.train_state, ptr %0, i32 0, i32 0
  %1 = load ptr, ptr %opt, align 8
  %isnull = icmp eq ptr %1, null
  br i1 %isnull, label %delete.end, label %delete.notnull

delete.notnull:                                   ; preds = %entry
  call void @_ZdlPv(ptr noundef %1) #19
  br label %delete.end

delete.end:                                       ; preds = %delete.notnull, %entry
  %2 = load ptr, ptr %state.addr, align 8
  %isnull1 = icmp eq ptr %2, null
  br i1 %isnull1, label %delete.end3, label %delete.notnull2

delete.notnull2:                                  ; preds = %delete.end
  call void @_ZN11train_stateD2Ev(ptr noundef nonnull align 8 dereferenceable(128) %2) #3
  call void @_ZdlPv(ptr noundef %2) #19
  br label %delete.end3

delete.end3:                                      ; preds = %delete.notnull2, %delete.end
  ret void
}