; Function Attrs: mustprogress nounwind uwtable
define void @_Z16free_train_stateP11train_state(ptr noundef %state) local_unnamed_addr #6 {
entry:
  %0 = load ptr, ptr %state, align 8
  %isnull = icmp eq ptr %0, null
  br i1 %isnull, label %delete.notnull2, label %delete.notnull

delete.notnull:                                   ; preds = %entry
  tail call void @_ZdlPv(ptr noundef nonnull %0) #37
  br label %delete.notnull2

delete.notnull2:                                  ; preds = %entry, %delete.notnull
  %shuffle_rng_state_next.i = getelementptr inbounds nuw i8, ptr %state, i64 80
  tail call void @_ZNSt7__cxx1112basic_stringIcSt11char_traitsIcESaIcEED1Ev(ptr noundef nonnull align 8 dereferenceable(32) %shuffle_rng_state_next.i) #36
  %shuffle_rng_state_current.i = getelementptr inbounds nuw i8, ptr %state, i64 48
  tail call void @_ZNSt7__cxx1112basic_stringIcSt11char_traitsIcESaIcEED1Ev(ptr noundef nonnull align 8 dereferenceable(32) %shuffle_rng_state_current.i) #36
  tail call void @_ZdlPv(ptr noundef nonnull %state) #37
  ret void
}